; Function Attrs: nounwind uwtable
define void @Aig_MmFlexStop(ptr noundef %0, i32 noundef %1) local_unnamed_addr #2 {
  %3 = icmp eq ptr %0, null
  br i1 %3, label %36, label %4

4:                                                ; preds = %2
  %.not = icmp eq i32 %1, 0
  br i1 %.not, label %17, label %5

5:                                                ; preds = %4
  %6 = getelementptr inbounds nuw i8, ptr %0, i64 24
  %7 = load i32, ptr %6, align 8, !tbaa !27
  %8 = getelementptr inbounds nuw i8, ptr %0, i64 32
  %9 = load i32, ptr %8, align 8, !tbaa !31
  %10 = tail call i32 (ptr, ...) @printf(ptr noundef nonnull dereferenceable(1) @.str.2, i32 noundef %7, i32 noundef %9)
  %11 = load i32, ptr %0, align 8, !tbaa !32
  %12 = getelementptr inbounds nuw i8, ptr %0, i64 48
  %13 = load i32, ptr %12, align 8, !tbaa !33
  %14 = getelementptr inbounds nuw i8, ptr %0, i64 52
  %15 = load i32, ptr %14, align 4, !tbaa !34
  %16 = tail call i32 (ptr, ...) @printf(ptr noundef nonnull dereferenceable(1) @.str.3, i32 noundef %11, i32 noundef %13, i32 noundef %15)
  br label %17

17:                                               ; preds = %5, %4
  %18 = getelementptr inbounds nuw i8, ptr %0, i64 32
  %19 = load i32, ptr %18, align 8, !tbaa !31
  %20 = icmp sgt i32 %19, 0
  %21 = getelementptr inbounds nuw i8, ptr %0, i64 40
  %.pre = load ptr, ptr %21, align 8, !tbaa !30
  br i1 %20, label %.lr.ph, label %._crit_edge

.lr.ph:                                           ; preds = %17, %29
  %22 = phi i32 [ %30, %29 ], [ %19, %17 ]
  %23 = phi ptr [ %31, %29 ], [ %.pre, %17 ]
  %indvars.iv = phi i64 [ %indvars.iv.next, %29 ], [ 0, %17 ]
  %24 = getelementptr inbounds nuw ptr, ptr %23, i64 %indvars.iv
  %25 = load ptr, ptr %24, align 8, !tbaa !18
  %.not24 = icmp eq ptr %25, null
  br i1 %.not24, label %29, label %26

26:                                               ; preds = %.lr.ph
  tail call void @free(ptr noundef nonnull %25) #15
  %27 = load ptr, ptr %21, align 8, !tbaa !30
  %28 = getelementptr inbounds nuw ptr, ptr %27, i64 %indvars.iv
  store ptr null, ptr %28, align 8, !tbaa !18
  %.pre27 = load i32, ptr %18, align 8, !tbaa !31
  br label %29

29:                                               ; preds = %26, %.lr.ph
  %30 = phi i32 [ %.pre27, %26 ], [ %22, %.lr.ph ]
  %31 = phi ptr [ %27, %26 ], [ %23, %.lr.ph ]
  %indvars.iv.next = add nuw nsw i64 %indvars.iv, 1
  %32 = sext i32 %30 to i64
  %33 = icmp slt i64 %indvars.iv.next, %32
  br i1 %33, label %.lr.ph, label %._crit_edge.thread, !llvm.loop !35

._crit_edge:                                      ; preds = %17
  %.not23 = icmp eq ptr %.pre, null
  br i1 %.not23, label %35, label %._crit_edge.thread

._crit_edge.thread:                               ; preds = %29, %._crit_edge
  %34 = phi ptr [ %.pre, %._crit_edge ], [ %31, %29 ]
  tail call void @free(ptr noundef nonnull %34) #15
  br label %35

35:                                               ; preds = %._crit_edge.thread, %._crit_edge
  tail call void @free(ptr noundef nonnull %0) #15
  br label %36

36:                                               ; preds = %2, %35
  ret void
}